target datalayout = "e-m:e-p270:32:32-p271:32:32-p272:64:64-i64:64-i128:128-f80:128-n8:16:32:64-S128"
target triple = "x86_64-pc-linux-gnu"

@Extra_TruthCanonFastN.uTruthStore6 = internal global [2 x i32] zeroinitializer, align 4

; Function Attrs: nounwind uwtable
define i32 @Extra_TruthCanonFastN(i32 noundef %0, i32 noundef %1, ptr noundef %2, ptr noundef %3, ptr noundef %4) #0 {
  %6 = alloca i32, align 4
  %7 = alloca i32, align 4
  %8 = alloca ptr, align 8
  %9 = alloca ptr, align 8
  %10 = alloca ptr, align 8
  %11 = alloca i32, align 4
  store i32 %0, ptr %6, align 4, !tbaa !3
  store i32 %1, ptr %7, align 4, !tbaa !3
  store ptr %2, ptr %8, align 8, !tbaa !7
  store ptr %3, ptr %9, align 8, !tbaa !10
  store ptr %4, ptr %10, align 8, !tbaa !12
  call void @llvm.lifetime.start.p0(i64 4, ptr %11) #3
  %12 = load i32, ptr %7, align 4, !tbaa !3
  %13 = icmp sle i32 %12, 3
  br i1 %13, label %14, label %15

14:                                               ; preds = %5
  br label %17

15:                                               ; preds = %5
  %16 = load i32, ptr %7, align 4, !tbaa !3
  br label %17

17:                                               ; preds = %15, %14
  %18 = phi i32 [ 3, %14 ], [ %16, %15 ]
  %19 = load ptr, ptr %8, align 8, !tbaa !7
  %20 = load ptr, ptr %9, align 8, !tbaa !10
  %21 = load ptr, ptr %10, align 8, !tbaa !12
  %22 = call i32 @Extra_TruthCanonN_rec(i32 noundef %18, ptr noundef %19, ptr noundef %20, ptr noundef %21, i32 noundef 0)
  store i32 %22, ptr %11, align 4, !tbaa !3
  %23 = load i32, ptr %6, align 4, !tbaa !3
  %24 = icmp eq i32 %23, 6
  br i1 %24, label %25, label %37

25:                                               ; preds = %17
  %26 = load i32, ptr %7, align 4, !tbaa !3
  %27 = load i32, ptr %6, align 4, !tbaa !3
  %28 = icmp slt i32 %26, %27
  br i1 %28, label %29, label %37

29:                                               ; preds = %25
  %30 = load ptr, ptr %9, align 8, !tbaa !10
  %31 = load ptr, ptr %30, align 8, !tbaa !7
  %32 = load i32, ptr %31, align 4, !tbaa !3
  store i32 %32, ptr @Extra_TruthCanonFastN.uTruthStore6, align 4, !tbaa !3
  %33 = load ptr, ptr %9, align 8, !tbaa !10
  %34 = load ptr, ptr %33, align 8, !tbaa !7
  %35 = load i32, ptr %34, align 4, !tbaa !3
  store i32 %35, ptr getelementptr inbounds ([2 x i32], ptr @Extra_TruthCanonFastN.uTruthStore6, i64 0, i64 1), align 4, !tbaa !3
  %36 = load ptr, ptr %9, align 8, !tbaa !10
  store ptr @Extra_TruthCanonFastN.uTruthStore6, ptr %36, align 8, !tbaa !7
  br label %37

37:                                               ; preds = %29, %25, %17
  %38 = load i32, ptr %11, align 4, !tbaa !3
  call void @llvm.lifetime.end.p0(i64 4, ptr %11) #3
  ret i32 %38
}