; Function Attrs: nounwind uwtable
define i32 @Extra_TruthCanonFastN(i32 noundef %0, i32 noundef %1, ptr noundef %2, ptr noundef captures(none) %3, ptr noundef writeonly captures(none) %4) local_unnamed_addr #0 {
  %6 = tail call i32 @llvm.smax.i32(i32 %1, i32 3)
  %7 = tail call fastcc i32 @Extra_TruthCanonN_rec(i32 noundef %6, ptr noundef %2, ptr noundef %3, ptr noundef %4, i32 noundef 0)
  %8 = icmp eq i32 %0, 6
  %9 = icmp slt i32 %1, 6
  %or.cond = and i1 %8, %9
  br i1 %or.cond, label %10, label %13

10:                                               ; preds = %5
  %11 = load ptr, ptr %3, align 8, !tbaa !3
  %12 = load i32, ptr %11, align 4, !tbaa !8
  store i32 %12, ptr @Extra_TruthCanonFastN.uTruthStore6, align 4, !tbaa !8
  store i32 %12, ptr getelementptr inbounds nuw (i8, ptr @Extra_TruthCanonFastN.uTruthStore6, i64 4), align 4, !tbaa !8
  store ptr @Extra_TruthCanonFastN.uTruthStore6, ptr %3, align 8, !tbaa !3
  br label %13

13:                                               ; preds = %10, %5
  ret i32 %7
}